target datalayout = "e-m:e-p270:32:32-p271:32:32-p272:64:64-i64:64-i128:128-f80:128-n8:16:32:64-S128"
target triple = "x86_64-pc-linux-gnu"

%class.G1CardSetAllocator = type { %class.G1MonotonicArena, %class.FreeListAllocator }
%class.G1MonotonicArena = type { %class.FreeListConfig, ptr, ptr, ptr, i32, i64, ptr, i32, i32 }
%class.FreeListConfig = type { ptr, i64 }
%class.FreeListAllocator = type { ptr, [120 x i8], i64, [120 x i8], %class.LockFreeStack, [120 x i8], i8, [127 x i8], i32, [2 x %"class.FreeListAllocator::PendingList"] }
%class.LockFreeStack = type { ptr }
%"class.FreeListAllocator::PendingList" = type { ptr, ptr, i64 }
%class.G1CardSetMemoryManager = type { ptr, ptr, ptr }
%class.G1MonotonicArenaFreePool = type { i32, ptr }
%"class.G1MonotonicArena::SegmentFreeList" = type { %class.LockFreeStack.0, i64, i64 }
%class.LockFreeStack.0 = type { ptr }

@_ZTV22G1CardSetMemoryManager = hidden unnamed_addr constant { [4 x ptr] } { [4 x ptr] [ptr null, ptr null, ptr @_ZN22G1CardSetMemoryManagerD1Ev, ptr @_ZN22G1CardSetMemoryManagerD0Ev] }, align 8
@_ZN18G1CardSetAllocatorC1EPKcPK21G1CardSetAllocOptionsPN16G1MonotonicArena15SegmentFreeListE = hidden unnamed_addr alias void (ptr, ptr, ptr, ptr), ptr @_ZN18G1CardSetAllocatorC2EPKcPK21G1CardSetAllocOptionsPN16G1MonotonicArena15SegmentFreeListE

; Function Attrs: mustprogress nounwind uwtable
define linkonce_odr hidden noundef ptr @_ZN24G1MonotonicArenaFreePool9free_listEj(ptr noundef nonnull align 8 dereferenceable(16) %0, i32 noundef %1) #1 comdat align 2 {
  %3 = alloca ptr, align 8
  %4 = alloca i32, align 4
  store ptr %0, ptr %3, align 8
  store i32 %1, ptr %4, align 4
  %5 = load ptr, ptr %3, align 8
  %6 = getelementptr inbounds %class.G1MonotonicArenaFreePool, ptr %5, i32 0, i32 1
  %7 = load ptr, ptr %6, align 8
  %8 = load i32, ptr %4, align 4
  %9 = zext i32 %8 to i64
  %10 = getelementptr inbounds %"class.G1MonotonicArena::SegmentFreeList", ptr %7, i64 %9
  ret ptr %10
}

; Function Attrs: mustprogress nounwind uwtable
define hidden noundef i32 @_ZNK22G1CardSetMemoryManager20num_mem_object_typesEv(ptr noundef nonnull align 8 dereferenceable(24) %0) #1 align 2 {
  %2 = alloca ptr, align 8
  store ptr %0, ptr %2, align 8
  %3 = call noundef i32 @_ZN22G1CardSetConfiguration20num_mem_object_typesEv()
  ret i32 %3
}

; Function Attrs: mustprogress nounwind uwtable
define linkonce_odr hidden noundef i32 @_ZN22G1CardSetConfiguration20num_mem_object_typesEv() #1 comdat align 2 {
  ret i32 4
}

; Function Attrs: mustprogress nounwind uwtable
define hidden void @_ZN22G1CardSetMemoryManagerC2EP22G1CardSetConfigurationP24G1MonotonicArenaFreePool(ptr noundef nonnull align 8 dereferenceable(24) %0, ptr noundef %1, ptr noundef %2) unnamed_addr #1 align 2 {
  %4 = alloca ptr, align 8
  %5 = alloca ptr, align 8
  %6 = alloca ptr, align 8
  %7 = alloca i32, align 4
  store ptr %0, ptr %4, align 8
  store ptr %1, ptr %5, align 8
  store ptr %2, ptr %6, align 8
  %8 = load ptr, ptr %4, align 8
  store ptr getelementptr inbounds inrange(-16, 16) ({ [4 x ptr] }, ptr @_ZTV22G1CardSetMemoryManager, i32 0, i32 0, i32 2), ptr %8, align 8
  %9 = getelementptr inbounds %class.G1CardSetMemoryManager, ptr %8, i32 0, i32 1
  %10 = load ptr, ptr %5, align 8
  store ptr %10, ptr %9, align 8
  %11 = call noundef i32 @_ZN22G1CardSetConfiguration20num_mem_object_typesEv()
  %12 = zext i32 %11 to i64
  %13 = mul i64 %12, 640
  %14 = call noundef ptr @_Z12AllocateHeapm8MEMFLAGSN17AllocFailStrategy13AllocFailEnumE(i64 noundef %13, i8 noundef zeroext 5, i32 noundef 0)
  %15 = getelementptr inbounds %class.G1CardSetMemoryManager, ptr %8, i32 0, i32 2
  store ptr %14, ptr %15, align 8
  store i32 0, ptr %7, align 4
  br label %16

16:                                               ; preds = %35, %3
  %17 = load i32, ptr %7, align 4
  %18 = call noundef i32 @_ZNK22G1CardSetMemoryManager20num_mem_object_typesEv(ptr noundef nonnull align 8 dereferenceable(24) %8)
  %19 = icmp ult i32 %17, %18
  br i1 %19, label %20, label %38

20:                                               ; preds = %16
  %21 = getelementptr inbounds %class.G1CardSetMemoryManager, ptr %8, i32 0, i32 2
  %22 = load ptr, ptr %21, align 8
  %23 = load i32, ptr %7, align 4
  %24 = zext i32 %23 to i64
  %25 = getelementptr inbounds %class.G1CardSetAllocator, ptr %22, i64 %24
  %26 = load i32, ptr %7, align 4
  %27 = call noundef ptr @_ZN22G1CardSetConfiguration24mem_object_type_name_strEj(i32 noundef %26)
  %28 = getelementptr inbounds %class.G1CardSetMemoryManager, ptr %8, i32 0, i32 1
  %29 = load ptr, ptr %28, align 8
  %30 = load i32, ptr %7, align 4
  %31 = call noundef ptr @_ZN22G1CardSetConfiguration24mem_object_alloc_optionsEj(ptr noundef nonnull align 8 dereferenceable(56) %29, i32 noundef %30)
  %32 = load ptr, ptr %6, align 8
  %33 = load i32, ptr %7, align 4
  %34 = call noundef ptr @_ZN24G1MonotonicArenaFreePool9free_listEj(ptr noundef nonnull align 8 dereferenceable(16) %32, i32 noundef %33)
  call void @_ZN18G1CardSetAllocatorC1EPKcPK21G1CardSetAllocOptionsPN16G1MonotonicArena15SegmentFreeListE(ptr noundef nonnull align 8 dereferenceable(640) %25, ptr noundef %27, ptr noundef %31, ptr noundef %34)
  br label %35

35:                                               ; preds = %20
  %36 = load i32, ptr %7, align 4
  %37 = add i32 %36, 1
  store i32 %37, ptr %7, align 4
  br label %16, !llvm.loop !6

38:                                               ; preds = %16
  ret void
}