; Function Attrs: mustprogress nounwind uwtable
define hidden void @_ZN22G1CardSetMemoryManagerC2EP22G1CardSetConfigurationP24G1MonotonicArenaFreePool(ptr nocapture noundef nonnull align 8 dereferenceable(24) %0, ptr noundef %1, ptr nocapture noundef readonly %2) unnamed_addr #0 align 2 {
  store ptr getelementptr inbounds inrange(-16, 16) (i8, ptr @_ZTV22G1CardSetMemoryManager, i64 16), ptr %0, align 8
  %4 = getelementptr inbounds i8, ptr %0, i64 8
  store ptr %1, ptr %4, align 8
  %5 = tail call noundef ptr @_Z12AllocateHeapm8MEMFLAGSN17AllocFailStrategy13AllocFailEnumE(i64 noundef 2560, i8 noundef zeroext 5, i32 noundef 0) #4
  %6 = getelementptr inbounds i8, ptr %0, i64 16
  store ptr %5, ptr %6, align 8
  %7 = getelementptr inbounds i8, ptr %2, i64 8
  br label %8

8:                                                ; preds = %3, %8
  %indvars.iv = phi i64 [ 0, %3 ], [ %indvars.iv.next, %8 ]
  %9 = load ptr, ptr %6, align 8
  %10 = getelementptr inbounds %class.G1CardSetAllocator, ptr %9, i64 %indvars.iv
  %11 = trunc nuw nsw i64 %indvars.iv to i32
  %12 = tail call noundef ptr @_ZN22G1CardSetConfiguration24mem_object_type_name_strEj(i32 noundef %11) #4
  %13 = load ptr, ptr %4, align 8
  %14 = tail call noundef ptr @_ZN22G1CardSetConfiguration24mem_object_alloc_optionsEj(ptr noundef nonnull align 8 dereferenceable(56) %13, i32 noundef %11) #4
  %15 = load ptr, ptr %7, align 8
  %16 = getelementptr inbounds %"class.G1MonotonicArena::SegmentFreeList", ptr %15, i64 %indvars.iv
  tail call void @_ZN16G1MonotonicArenaC1EPKNS_12AllocOptionsEPNS_15SegmentFreeListE(ptr noundef nonnull align 8 dereferenceable(72) %10, ptr noundef %14, ptr noundef %16) #4
  %17 = getelementptr inbounds i8, ptr %10, i64 72
  tail call void @_ZN17FreeListAllocatorC1EPKcP14FreeListConfig(ptr noundef nonnull align 8 dereferenceable(568) %17, ptr noundef %12, ptr noundef nonnull %10) #4
  %18 = tail call noundef i32 @_ZNK16G1MonotonicArena9slot_sizeEv(ptr noundef nonnull align 8 dereferenceable(72) %10) #4
  %indvars.iv.next = add nuw nsw i64 %indvars.iv, 1
  %exitcond.not = icmp eq i64 %indvars.iv.next, 4
  br i1 %exitcond.not, label %19, label %8, !llvm.loop !6

19:                                               ; preds = %8
  ret void
}